target datalayout = "e-m:e-p270:32:32-p271:32:32-p272:64:64-i64:64-i128:128-f80:128-n8:16:32:64-S128"
target triple = "x86_64-pc-linux-gnu"

%"struct.std::_Rb_tree_header" = type { %"struct.std::_Rb_tree_node_base", i64 }
%"struct.std::_Rb_tree_node_base" = type { i32, ptr, ptr, ptr }
%"class.vcg::Color4" = type { %"class.vcg::Point4" }
%"class.vcg::Point4" = type { [4 x i8] }
%class.QString = type { ptr }
%class.EditMutualCorrsPlugin = type { %class.QObject, %class.EditTool, %class.QPoint, %class.QFont, ptr, ptr, %"class.std::vector.16", %"class.std::vector.20", %"class.std::vector.25", %"class.std::vector.30", %"class.std::vector.35", i32, %class.QString, %class.QString, %class.QString, %class.QString, %class.AlignSet }
%class.QObject = type { ptr, %class.QScopedPointer }
%class.QScopedPointer = type { ptr }
%class.EditTool = type { %class.MeshLabPluginLogger }
%class.MeshLabPluginLogger = type { ptr, ptr }
%class.QPoint = type { i32, i32 }
%class.QFont = type <{ %class.QExplicitlySharedDataPointer, i32, [4 x i8] }>
%class.QExplicitlySharedDataPointer = type { ptr }
%"class.std::vector.16" = type { %"struct.std::_Bvector_base" }
%"struct.std::_Bvector_base" = type { %"struct.std::_Bvector_base<std::allocator<bool>>::_Bvector_impl" }
%"struct.std::_Bvector_base<std::allocator<bool>>::_Bvector_impl" = type { %"struct.std::_Bvector_base<std::allocator<bool>>::_Bvector_impl_data" }
%"struct.std::_Bvector_base<std::allocator<bool>>::_Bvector_impl_data" = type { %"struct.std::_Bit_iterator", %"struct.std::_Bit_iterator", ptr }
%"struct.std::_Bit_iterator" = type { %"struct.std::_Bit_iterator_base.base", [4 x i8] }
%"struct.std::_Bit_iterator_base.base" = type <{ ptr, i32 }>
%"class.std::vector.20" = type { %"struct.std::_Vector_base.21" }
%"struct.std::_Vector_base.21" = type { %"struct.std::_Vector_base<QString, std::allocator<QString>>::_Vector_impl" }
%"struct.std::_Vector_base<QString, std::allocator<QString>>::_Vector_impl" = type { %"struct.std::_Vector_base<QString, std::allocator<QString>>::_Vector_impl_data" }
%"struct.std::_Vector_base<QString, std::allocator<QString>>::_Vector_impl_data" = type { ptr, ptr, ptr }
%"class.std::vector.25" = type { %"struct.std::_Vector_base.26" }
%"struct.std::_Vector_base.26" = type { %"struct.std::_Vector_base<vcg::Point3<float>, std::allocator<vcg::Point3<float>>>::_Vector_impl" }
%"struct.std::_Vector_base<vcg::Point3<float>, std::allocator<vcg::Point3<float>>>::_Vector_impl" = type { %"struct.std::_Vector_base<vcg::Point3<float>, std::allocator<vcg::Point3<float>>>::_Vector_impl_data" }
%"struct.std::_Vector_base<vcg::Point3<float>, std::allocator<vcg::Point3<float>>>::_Vector_impl_data" = type { ptr, ptr, ptr }
%"class.std::vector.30" = type { %"struct.std::_Vector_base.31" }
%"struct.std::_Vector_base.31" = type { %"struct.std::_Vector_base<vcg::Point2<float>, std::allocator<vcg::Point2<float>>>::_Vector_impl" }
%"struct.std::_Vector_base<vcg::Point2<float>, std::allocator<vcg::Point2<float>>>::_Vector_impl" = type { %"struct.std::_Vector_base<vcg::Point2<float>, std::allocator<vcg::Point2<float>>>::_Vector_impl_data" }
%"struct.std::_Vector_base<vcg::Point2<float>, std::allocator<vcg::Point2<float>>>::_Vector_impl_data" = type { ptr, ptr, ptr }
%"class.std::vector.35" = type { %"struct.std::_Vector_base.36" }
%"struct.std::_Vector_base.36" = type { %"struct.std::_Vector_base<double, std::allocator<double>>::_Vector_impl" }
%"struct.std::_Vector_base<double, std::allocator<double>>::_Vector_impl" = type { %"struct.std::_Vector_base<double, std::allocator<double>>::_Vector_impl_data" }
%"struct.std::_Vector_base<double, std::allocator<double>>::_Vector_impl_data" = type { ptr, ptr, ptr }
%class.AlignSet = type { i32, i32, ptr, ptr, double, %"class.vcg::Shot", %"class.vcg::Box3", %"class.std::vector.42", double, i32, i32, i32, i32, [6 x i32], i32, ptr, ptr }
%"class.vcg::Shot" = type { %"class.vcg::Camera", %"class.vcg::Shot<float>::ReferenceFrame" }
%"class.vcg::Camera" = type { float, %"class.vcg::Point2", %"class.vcg::Point2.40", %"class.vcg::Point2.40", %"class.vcg::Point2.40", %"struct.std::array", i32 }
%"class.vcg::Point2" = type { [2 x i32] }
%"class.vcg::Point2.40" = type { [2 x float] }
%"struct.std::array" = type { [4 x float] }
%"class.vcg::Shot<float>::ReferenceFrame" = type { %"class.vcg::Matrix44", %"class.vcg::Point3" }
%"class.vcg::Matrix44" = type { %"struct.std::array.41" }
%"struct.std::array.41" = type { [16 x float] }
%"class.vcg::Point3" = type { [3 x float] }
%"class.vcg::Box3" = type { %"class.vcg::Point3", %"class.vcg::Point3" }
%"class.std::vector.42" = type { %"struct.std::_Vector_base.43" }
%"struct.std::_Vector_base.43" = type { %"struct.std::_Vector_base<Correspondence, std::allocator<Correspondence>>::_Vector_impl" }
%"struct.std::_Vector_base<Correspondence, std::allocator<Correspondence>>::_Vector_impl" = type { %"struct.std::_Vector_base<Correspondence, std::allocator<Correspondence>>::_Vector_impl_data" }
%"struct.std::_Vector_base<Correspondence, std::allocator<Correspondence>>::_Vector_impl_data" = type { ptr, ptr, ptr }
%class.QWidget = type { %class.QObject, %class.QPaintDevice, ptr }
%class.QPaintDevice = type { ptr, i16, ptr }
%class.MultiViewer_Container = type { %class.Splitter, %class.MeshDocument, ptr, i32, ptr, %class.QList.190 }
%class.Splitter = type { %class.QSplitter }
%class.QSplitter = type { %class.QFrame }
%class.QFrame = type { %class.QWidget }
%class.MeshDocument = type { %class.QObject, %class.GLLogStream, %class.FilterScript, %"class.std::__cxx11::list", %"class.std::__cxx11::list.53", i32, i32, %class.QString, %class.QString, %class.MeshDocumentStateData, i8, ptr, ptr }
%class.GLLogStream = type { %class.QObject, i32, %class.QList, %class.QMultiMap }
%class.QList = type { %union.anon }
%union.anon = type { %struct.QListData }
%struct.QListData = type { ptr }
%class.QMultiMap = type { %class.QMap }
%class.QMap = type { ptr }
%class.FilterScript = type { %class.QObject, %class.QList.47 }
%class.QList.47 = type { %union.anon.49 }
%union.anon.49 = type { %struct.QListData }
%"class.std::__cxx11::list" = type { %"class.std::__cxx11::_List_base" }
%"class.std::__cxx11::_List_base" = type { %"struct.std::__cxx11::_List_base<MeshModel, std::allocator<MeshModel>>::_List_impl" }
%"struct.std::__cxx11::_List_base<MeshModel, std::allocator<MeshModel>>::_List_impl" = type { %"struct.std::__detail::_List_node_header" }
%"struct.std::__detail::_List_node_header" = type { %"struct.std::__detail::_List_node_base", i64 }
%"struct.std::__detail::_List_node_base" = type { ptr, ptr }
%"class.std::__cxx11::list.53" = type { %"class.std::__cxx11::_List_base.54" }
%"class.std::__cxx11::_List_base.54" = type { %"struct.std::__cxx11::_List_base<RasterModel, std::allocator<RasterModel>>::_List_impl" }
%"struct.std::__cxx11::_List_base<RasterModel, std::allocator<RasterModel>>::_List_impl" = type { %"struct.std::__detail::_List_node_header" }
%class.MeshDocumentStateData = type { %class.QReadWriteLock, %class.QMap.58 }
%class.QReadWriteLock = type { %class.QAtomicPointer }
%class.QAtomicPointer = type { %class.QBasicAtomicPointer }
%class.QBasicAtomicPointer = type { %"struct.std::atomic" }
%"struct.std::atomic" = type { %"struct.std::__atomic_base" }
%"struct.std::__atomic_base" = type { ptr }
%class.QMap.58 = type { ptr }
%class.QList.190 = type { %union.anon.192 }
%union.anon.192 = type { %struct.QListData }
%class.GLArea = type <{ %class.QGLWidget, i32, [4 x i8], ptr, %"class.vcg::Trackball", %"class.vcg::Trackball", %class.GLAreaSetting, %class.QMap.178, %class.QList.179, i8, i8, [6 x i8], %class.QString, %class.QMap.182, i8, i8, i8, i8, i8, i8, i8, i8, %class.QString, %class.QString, i8, [3 x i8], %"class.vcg::Point2", [4 x i8], ptr, ptr, ptr, %class.QFont, ptr, ptr, ptr, %class.QMap.183, ptr, float, float, float, float, float, [4 x i8], %class.SnapshotSetting, i32, [4 x i8], %class.QMap.184, %class.QMap.184, float, float, %class.QImage, i8, [3 x i8], i32, i32, i32, i32, i32, i8, [3 x i8], i32, i32, i8, [3 x i8], float, i32, %class.QString, i32, [4 x i8] }>
%class.QGLWidget = type { %class.QWidget }
%"class.vcg::Trackball" = type <{ %"class.vcg::Transform", %"class.vcg::View", i32, ptr, ptr, ptr, %"class.std::map.165", %"class.vcg::Similarityf", %"class.vcg::Similarityf", %"class.vcg::Similarityf", %"class.vcg::Point3", [4 x i8], %"class.std::vector.25", i8, [3 x i8], i32, i32, %"class.vcg::Quaternion", i8, i8, [2 x i8], %"class.std::__cxx11::list.173", i32, i8, [3 x i8] }>
%"class.vcg::Transform" = type { %"class.vcg::Similarityf", %"class.vcg::Point3", float }
%"class.vcg::View" = type <{ %"class.vcg::Matrix44", %"class.vcg::Matrix44", %"class.vcg::Matrix44", %"class.vcg::Matrix44", [4 x i32], i8, [3 x i8] }>
%"class.std::map.165" = type { %"class.std::_Rb_tree.166" }
%"class.std::_Rb_tree.166" = type { %"struct.std::_Rb_tree<int, std::pair<const int, vcg::TrackMode *>, std::_Select1st<std::pair<const int, vcg::TrackMode *>>, std::less<int>>::_Rb_tree_impl" }
%"struct.std::_Rb_tree<int, std::pair<const int, vcg::TrackMode *>, std::_Select1st<std::pair<const int, vcg::TrackMode *>>, std::less<int>>::_Rb_tree_impl" = type { %"struct.std::_Rb_tree_key_compare.170", %"struct.std::_Rb_tree_header" }
%"struct.std::_Rb_tree_key_compare.170" = type { %"struct.std::less.171" }
%"struct.std::less.171" = type { i8 }
%"class.vcg::Similarityf" = type { %"class.vcg::Similarity" }
%"class.vcg::Similarity" = type { %"class.vcg::Quaternion", %"class.vcg::Point3", float }
%"class.vcg::Quaternion" = type { %"class.vcg::Point4.164" }
%"class.vcg::Point4.164" = type { [4 x float] }
%"class.std::__cxx11::list.173" = type { %"class.std::__cxx11::_List_base.174" }
%"class.std::__cxx11::_List_base.174" = type { %"struct.std::__cxx11::_List_base<vcg::Transform, std::allocator<vcg::Transform>>::_List_impl" }
%"struct.std::__cxx11::_List_base<vcg::Transform, std::allocator<vcg::Transform>>::_List_impl" = type { %"struct.std::__detail::_List_node_header" }
%class.GLAreaSetting = type { %"class.vcg::Color4", %"class.vcg::Color4", %"class.vcg::Color4", %"class.vcg::Color4", %"class.vcg::Color4", %"class.vcg::Color4", %"class.vcg::Color4", %"class.vcg::Color4", %"class.vcg::Color4", i32, i32, i32, i8, i8, float, i8, i8, i32, ptr }
%class.QMap.178 = type { ptr }
%class.QList.179 = type { %union.anon.181 }
%union.anon.181 = type { %struct.QListData }
%class.QMap.182 = type { ptr }
%class.QMap.183 = type { ptr }
%class.SnapshotSetting = type { %class.QString, %class.QString, i32, i32, i32, i8, i8, i8, i8 }
%class.QMap.184 = type { ptr }
%class.QImage = type { %class.QPaintDevice, ptr }
%class.QSize = type { i32, i32 }
%class.MeshLabRenderRaster = type { %"class.vcg::Shot", %class.QList.211, ptr }
%class.QList.211 = type { %union.anon.213 }
%union.anon.213 = type { %struct.QListData }
%class.RasterPlane = type { i32, %class.QString, %class.QImage }
%class.QWidgetData = type { i64, i32, %class.QFlags.200, i32, %class.QRect, [4 x i8], %class.QPalette, %class.QFont, %class.QRect }
%class.QFlags.200 = type { i32 }
%class.QPalette = type <{ ptr, %union.anon.201, [4 x i8] }>
%union.anon.201 = type { %"struct.QPalette::Data" }
%"struct.QPalette::Data" = type { i32 }
%class.QRect = type { i32, i32, i32, i32 }

; Function Attrs: mustprogress nounwind uwtable
define linkonce_odr void @_ZN5QSizeC2Eii(ptr noundef nonnull align 4 dereferenceable(8) %0, i32 noundef %1, i32 noundef %2) unnamed_addr #4 comdat align 2 {
  %4 = alloca ptr, align 8
  %5 = alloca i32, align 4
  %6 = alloca i32, align 4
  store ptr %0, ptr %4, align 8
  store i32 %1, ptr %5, align 4
  store i32 %2, ptr %6, align 4
  %7 = load ptr, ptr %4, align 8
  %8 = getelementptr inbounds %class.QSize, ptr %7, i32 0, i32 0
  %9 = load i32, ptr %5, align 4
  store i32 %9, ptr %8, align 4
  %10 = getelementptr inbounds %class.QSize, ptr %7, i32 0, i32 1
  %11 = load i32, ptr %6, align 4
  store i32 %11, ptr %10, align 4
  ret void
}

; Function Attrs: mustprogress nounwind uwtable
define linkonce_odr noundef i32 @_ZNK5QRect6heightEv(ptr noundef nonnull align 4 dereferenceable(16) %0) #4 comdat align 2 {
  %2 = alloca ptr, align 8
  store ptr %0, ptr %2, align 8
  %3 = load ptr, ptr %2, align 8
  %4 = getelementptr inbounds %class.QRect, ptr %3, i32 0, i32 3
  %5 = load i32, ptr %4, align 4
  %6 = getelementptr inbounds %class.QRect, ptr %3, i32 0, i32 1
  %7 = load i32, ptr %6, align 4
  %8 = sub nsw i32 %5, %7
  %9 = add nsw i32 %8, 1
  ret i32 %9
}

; Function Attrs: mustprogress nounwind uwtable
define linkonce_odr noundef i32 @_ZNK5QRect5widthEv(ptr noundef nonnull align 4 dereferenceable(16) %0) #4 comdat align 2 {
  %2 = alloca ptr, align 8
  store ptr %0, ptr %2, align 8
  %3 = load ptr, ptr %2, align 8
  %4 = getelementptr inbounds %class.QRect, ptr %3, i32 0, i32 2
  %5 = load i32, ptr %4, align 4
  %6 = getelementptr inbounds %class.QRect, ptr %3, i32 0, i32 0
  %7 = load i32, ptr %6, align 4
  %8 = sub nsw i32 %5, %7
  %9 = add nsw i32 %8, 1
  ret i32 %9
}

; Function Attrs: mustprogress nounwind uwtable
define linkonce_odr noundef ptr @_ZN6GLArea3mvcEv(ptr noundef nonnull align 8 dereferenceable(1676) %0) #4 comdat align 2 {
  %2 = alloca ptr, align 8
  store ptr %0, ptr %2, align 8
  %3 = load ptr, ptr %2, align 8
  %4 = getelementptr inbounds %class.GLArea, ptr %3, i32 0, i32 3
  %5 = load ptr, ptr %4, align 8
  ret ptr %5
}

; Function Attrs: mustprogress nounwind uwtable
define linkonce_odr i64 @_ZNK5QRect4sizeEv(ptr noundef nonnull align 4 dereferenceable(16) %0) #4 comdat align 2 {
  %2 = alloca %class.QSize, align 4
  %3 = alloca ptr, align 8
  store ptr %0, ptr %3, align 8
  %4 = load ptr, ptr %3, align 8
  %5 = call noundef i32 @_ZNK5QRect5widthEv(ptr noundef nonnull align 4 dereferenceable(16) %4) #3
  %6 = call noundef i32 @_ZNK5QRect6heightEv(ptr noundef nonnull align 4 dereferenceable(16) %4) #3
  call void @_ZN5QSizeC2Eii(ptr noundef nonnull align 4 dereferenceable(8) %2, i32 noundef %5, i32 noundef %6) #3
  %7 = load i64, ptr %2, align 4
  ret i64 %7
}

; Function Attrs: mustprogress nounwind uwtable
define linkonce_odr void @_ZN3vcg6Point2IfEC2Eff(ptr noundef nonnull align 4 dereferenceable(8) %0, float noundef %1, float noundef %2) unnamed_addr #4 comdat align 2 {
  %4 = alloca ptr, align 8
  %5 = alloca float, align 4
  %6 = alloca float, align 4
  store ptr %0, ptr %4, align 8
  store float %1, ptr %5, align 4
  store float %2, ptr %6, align 4
  %7 = load ptr, ptr %4, align 8
  %8 = load float, ptr %5, align 4
  %9 = getelementptr inbounds %"class.vcg::Point2.40", ptr %7, i32 0, i32 0
  %10 = getelementptr inbounds [2 x float], ptr %9, i64 0, i64 0
  store float %8, ptr %10, align 4
  %11 = load float, ptr %6, align 4
  %12 = getelementptr inbounds %"class.vcg::Point2.40", ptr %7, i32 0, i32 0
  %13 = getelementptr inbounds [2 x float], ptr %12, i64 0, i64 1
  store float %11, ptr %13, align 4
  ret void
}

; Function Attrs: mustprogress nounwind uwtable
define linkonce_odr noundef nonnull align 4 dereferenceable(4) ptr @_ZN3vcg6Point2IfEixEi(ptr noundef nonnull align 4 dereferenceable(8) %0, i32 noundef %1) #4 comdat align 2 {
  %3 = alloca ptr, align 8
  %4 = alloca i32, align 4
  store ptr %0, ptr %3, align 8
  store i32 %1, ptr %4, align 4
  %5 = load ptr, ptr %3, align 8
  %6 = getelementptr inbounds %"class.vcg::Point2.40", ptr %5, i32 0, i32 0
  %7 = load i32, ptr %4, align 4
  %8 = sext i32 %7 to i64
  %9 = getelementptr inbounds [2 x float], ptr %6, i64 0, i64 %8
  ret ptr %9
}

; Function Attrs: mustprogress uwtable
define linkonce_odr noundef ptr @_ZN6GLArea2mdEv(ptr noundef nonnull align 8 dereferenceable(1676) %0) #5 comdat align 2 {
  %2 = alloca ptr, align 8
  %3 = alloca ptr, align 8
  store ptr %0, ptr %3, align 8
  %4 = load ptr, ptr %3, align 8
  %5 = call noundef ptr @_ZN6GLArea3mvcEv(ptr noundef nonnull align 8 dereferenceable(1676) %4)
  %6 = icmp eq ptr %5, null
  br i1 %6, label %7, label %8

7:                                                ; preds = %1
  store ptr null, ptr %2, align 8
  br label %11

8:                                                ; preds = %1
  %9 = call noundef ptr @_ZN6GLArea3mvcEv(ptr noundef nonnull align 8 dereferenceable(1676) %4)
  %10 = getelementptr inbounds %class.MultiViewer_Container, ptr %9, i32 0, i32 1
  store ptr %10, ptr %2, align 8
  br label %11

11:                                               ; preds = %8, %7
  %12 = load ptr, ptr %2, align 8
  ret ptr %12
}

; Function Attrs: mustprogress nounwind uwtable
define linkonce_odr noundef i32 @_ZNK5QSize6heightEv(ptr noundef nonnull align 4 dereferenceable(8) %0) #4 comdat align 2 {
  %2 = alloca ptr, align 8
  store ptr %0, ptr %2, align 8
  %3 = load ptr, ptr %2, align 8
  %4 = getelementptr inbounds %class.QSize, ptr %3, i32 0, i32 1
  %5 = load i32, ptr %4, align 4
  ret i32 %5
}

; Function Attrs: mustprogress nounwind uwtable
define linkonce_odr noundef i32 @_ZNK5QSize5widthEv(ptr noundef nonnull align 4 dereferenceable(8) %0) #4 comdat align 2 {
  %2 = alloca ptr, align 8
  store ptr %0, ptr %2, align 8
  %3 = load ptr, ptr %2, align 8
  %4 = getelementptr inbounds %class.QSize, ptr %3, i32 0, i32 0
  %5 = load i32, ptr %4, align 4
  ret i32 %5
}

; Function Attrs: mustprogress nounwind uwtable
define linkonce_odr i64 @_ZNK7QWidget4sizeEv(ptr noundef nonnull align 8 dereferenceable(48) %0) #4 comdat align 2 {
  %2 = alloca %class.QSize, align 4
  %3 = alloca ptr, align 8
  store ptr %0, ptr %3, align 8
  %4 = load ptr, ptr %3, align 8
  %5 = getelementptr inbounds %class.QWidget, ptr %4, i32 0, i32 2
  %6 = load ptr, ptr %5, align 8
  %7 = getelementptr inbounds %class.QWidgetData, ptr %6, i32 0, i32 4
  %8 = call i64 @_ZNK5QRect4sizeEv(ptr noundef nonnull align 4 dereferenceable(16) %7) #3
  store i64 %8, ptr %2, align 4
  %9 = load i64, ptr %2, align 4
  ret i64 %9
}

; Function Attrs: mustprogress uwtable
define <2 x float> @_ZN21EditMutualCorrsPlugin13fromImageToGLEN3vcg6Point2IfEE(ptr noundef nonnull align 8 dereferenceable(536) %0, <2 x float> %1) #13 align 2 {
  %3 = alloca %"class.vcg::Point2.40", align 4
  %4 = alloca %"class.vcg::Point2.40", align 4
  %5 = alloca ptr, align 8
  %6 = alloca i32, align 4
  %7 = alloca %class.QSize, align 4
  %8 = alloca i32, align 4
  %9 = alloca %class.QSize, align 4
  %10 = alloca i32, align 4
  %11 = alloca i32, align 4
  %12 = alloca double, align 8
  %13 = alloca double, align 8
  %14 = alloca double, align 8
  %15 = getelementptr inbounds %"class.vcg::Point2.40", ptr %4, i32 0, i32 0
  store <2 x float> %1, ptr %15, align 4
  store ptr %0, ptr %5, align 8
  %16 = load ptr, ptr %5, align 8
  %17 = getelementptr inbounds %class.EditMutualCorrsPlugin, ptr %16, i32 0, i32 5
  %18 = load ptr, ptr %17, align 8
  %19 = call i64 @_ZNK7QWidget4sizeEv(ptr noundef nonnull align 8 dereferenceable(48) %18)
  store i64 %19, ptr %7, align 4
  %20 = call noundef i32 @_ZNK5QSize5widthEv(ptr noundef nonnull align 4 dereferenceable(8) %7) #3
  store i32 %20, ptr %6, align 4
  %21 = getelementptr inbounds %class.EditMutualCorrsPlugin, ptr %16, i32 0, i32 5
  %22 = load ptr, ptr %21, align 8
  %23 = call i64 @_ZNK7QWidget4sizeEv(ptr noundef nonnull align 8 dereferenceable(48) %22)
  store i64 %23, ptr %9, align 4
  %24 = call noundef i32 @_ZNK5QSize6heightEv(ptr noundef nonnull align 4 dereferenceable(8) %9) #3
  store i32 %24, ptr %8, align 4
  %25 = getelementptr inbounds %class.EditMutualCorrsPlugin, ptr %16, i32 0, i32 5
  %26 = load ptr, ptr %25, align 8
  %27 = call noundef ptr @_ZN6GLArea2mdEv(ptr noundef nonnull align 8 dereferenceable(1676) %26)
  %28 = call noundef ptr @_ZN12MeshDocument2rmEv(ptr noundef nonnull align 8 dereferenceable(192) %27)
  %29 = getelementptr inbounds %class.MeshLabRenderRaster, ptr %28, i32 0, i32 2
  %30 = load ptr, ptr %29, align 8
  %31 = getelementptr inbounds %class.RasterPlane, ptr %30, i64 0
  %32 = getelementptr inbounds %class.RasterPlane, ptr %31, i32 0, i32 2
  %33 = call noundef i32 @_ZNK6QImage5widthEv(ptr noundef nonnull align 8 dereferenceable(32) %32)
  store i32 %33, ptr %10, align 4
  %34 = getelementptr inbounds %class.EditMutualCorrsPlugin, ptr %16, i32 0, i32 5
  %35 = load ptr, ptr %34, align 8
  %36 = call noundef ptr @_ZN6GLArea2mdEv(ptr noundef nonnull align 8 dereferenceable(1676) %35)
  %37 = call noundef ptr @_ZN12MeshDocument2rmEv(ptr noundef nonnull align 8 dereferenceable(192) %36)
  %38 = getelementptr inbounds %class.MeshLabRenderRaster, ptr %37, i32 0, i32 2
  %39 = load ptr, ptr %38, align 8
  %40 = getelementptr inbounds %class.RasterPlane, ptr %39, i64 0
  %41 = getelementptr inbounds %class.RasterPlane, ptr %40, i32 0, i32 2
  %42 = call noundef i32 @_ZNK6QImage6heightEv(ptr noundef nonnull align 8 dereferenceable(32) %41)
  store i32 %42, ptr %11, align 4
  %43 = load i32, ptr %8, align 4
  %44 = sitofp i32 %43 to double
  %45 = load i32, ptr %11, align 4
  %46 = sitofp i32 %45 to double
  %47 = fdiv double %44, %46
  store double %47, ptr %12, align 8
  %48 = call noundef nonnull align 4 dereferenceable(4) ptr @_ZN3vcg6Point2IfEixEi(ptr noundef nonnull align 4 dereferenceable(8) %4, i32 noundef 0)
  %49 = load float, ptr %48, align 4
  %50 = load i32, ptr %10, align 4
  %51 = sdiv i32 %50, 2
  %52 = sitofp i32 %51 to float
  %53 = fsub float %49, %52
  %54 = fpext float %53 to double
  %55 = load double, ptr %12, align 8
  %56 = fmul double %54, %55
  %57 = load i32, ptr %6, align 4
  %58 = sitofp i32 %57 to double
  %59 = fdiv double %58, 2.000000e+00
  %60 = fdiv double %56, %59
  store double %60, ptr %13, align 8
  %61 = call noundef nonnull align 4 dereferenceable(4) ptr @_ZN3vcg6Point2IfEixEi(ptr noundef nonnull align 4 dereferenceable(8) %4, i32 noundef 1)
  %62 = load float, ptr %61, align 4
  %63 = fpext float %62 to double
  %64 = load double, ptr %12, align 8
  %65 = load i32, ptr %8, align 4
  %66 = sitofp i32 %65 to double
  %67 = fdiv double %66, 2.000000e+00
  %68 = fneg double %67
  %69 = call double @llvm.fmuladd.f64(double %63, double %64, double %68)
  %70 = load i32, ptr %8, align 4
  %71 = sitofp i32 %70 to double
  %72 = fdiv double %71, 2.000000e+00
  %73 = fdiv double %69, %72
  store double %73, ptr %14, align 8
  %74 = load double, ptr %13, align 8
  %75 = fptrunc double %74 to float
  %76 = load double, ptr %14, align 8
  %77 = fptrunc double %76 to float
  call void @_ZN3vcg6Point2IfEC2Eff(ptr noundef nonnull align 4 dereferenceable(8) %3, float noundef %75, float noundef %77)
  %78 = getelementptr inbounds %"class.vcg::Point2.40", ptr %3, i32 0, i32 0
  %79 = load <2 x float>, ptr %78, align 4
  ret <2 x float> %79
}