; Function Attrs: mustprogress uwtable
define <2 x float> @_ZN21EditMutualCorrsPlugin13fromImageToGLEN3vcg6Point2IfEE(ptr nocapture noundef nonnull readonly align 8 dereferenceable(536) %0, <2 x float> %1) local_unnamed_addr #13 align 2 {
  %3 = getelementptr inbounds i8, ptr %0, i64 64
  %4 = load ptr, ptr %3, align 8
  %5 = getelementptr inbounds i8, ptr %4, i64 40
  %6 = load ptr, ptr %5, align 8
  %7 = getelementptr inbounds i8, ptr %6, i64 20
  %8 = getelementptr inbounds i8, ptr %6, i64 28
  %9 = getelementptr inbounds i8, ptr %4, i64 56
  %10 = load ptr, ptr %9, align 8
  %11 = icmp eq ptr %10, null
  %12 = getelementptr inbounds i8, ptr %10, i64 48
  %spec.select.i = select i1 %11, ptr null, ptr %12
  %.sroa.016.0.vec.extract = extractelement <2 x float> %1, i64 0
  %.sroa.016.4.vec.extract = extractelement <2 x float> %1, i64 1
  %13 = fpext float %.sroa.016.4.vec.extract to double
  %14 = load <2 x i32>, ptr %8, align 4
  %15 = load <2 x i32>, ptr %7, align 4
  %16 = add <2 x i32> %14, <i32 1, i32 1>
  %17 = sub <2 x i32> %16, %15
  %18 = tail call noundef ptr @_ZN12MeshDocument2rmEv(ptr noundef nonnull align 8 dereferenceable(192) %spec.select.i)
  %19 = getelementptr inbounds i8, ptr %18, i64 144
  %20 = load ptr, ptr %19, align 8
  %21 = getelementptr inbounds i8, ptr %20, i64 16
  %22 = tail call noundef i32 @_ZNK6QImage5widthEv(ptr noundef nonnull align 8 dereferenceable(32) %21)
  %23 = load ptr, ptr %3, align 8
  %24 = getelementptr inbounds i8, ptr %23, i64 56
  %25 = load ptr, ptr %24, align 8
  %26 = icmp eq ptr %25, null
  %27 = getelementptr inbounds i8, ptr %25, i64 48
  %spec.select.i14 = select i1 %26, ptr null, ptr %27
  %28 = tail call noundef ptr @_ZN12MeshDocument2rmEv(ptr noundef nonnull align 8 dereferenceable(192) %spec.select.i14)
  %29 = getelementptr inbounds i8, ptr %28, i64 144
  %30 = load ptr, ptr %29, align 8
  %31 = getelementptr inbounds i8, ptr %30, i64 16
  %32 = tail call noundef i32 @_ZNK6QImage6heightEv(ptr noundef nonnull align 8 dereferenceable(32) %31)
  %33 = sitofp i32 %32 to double
  %34 = sitofp <2 x i32> %17 to <2 x double>
  %35 = extractelement <2 x double> %34, i64 1
  %36 = fdiv double %35, %33
  %37 = sdiv i32 %22, 2
  %38 = sitofp i32 %37 to float
  %39 = fsub float %.sroa.016.0.vec.extract, %38
  %40 = fpext float %39 to double
  %41 = fmul double %36, %40
  %42 = fmul <2 x double> %34, <double 5.000000e-01, double 5.000000e-01>
  %43 = extractelement <2 x double> %42, i64 1
  %44 = fneg double %43
  %45 = tail call double @llvm.fmuladd.f64(double %13, double %36, double %44)
  %46 = insertelement <2 x double> poison, double %41, i64 0
  %47 = insertelement <2 x double> %46, double %45, i64 1
  %48 = fdiv <2 x double> %47, %42
  %49 = fptrunc <2 x double> %48 to <2 x float>
  ret <2 x float> %49
}